target datalayout = "e-m:e-p270:32:32-p271:32:32-p272:64:64-i64:64-i128:128-f80:128-n8:16:32:64-S128"
target triple = "x86_64-pc-linux-gnu"

%struct.AVCodecContext = type { ptr, i32, i32, ptr, i32, i32, ptr, ptr, ptr, i64, i32, i32, ptr, i32, %struct.AVRational, %struct.AVRational, %struct.AVRational, i32, i32, i32, i32, i32, %struct.AVRational, i32, i32, i32, i32, i32, i32, i32, i32, i32, i32, i32, ptr, ptr, i32, float, float, float, float, float, float, float, float, float, i32, i32, i32, i32, i32, i32, i32, i32, i32, i32, i32, i32, ptr, ptr, ptr, i32, i32, i32, i32, i32, i32, i32, i32, i32, i32, %struct.AVChannelLayout, i32, i32, i32, i32, i32, i32, i32, i32, ptr, i32, i32, i32, float, float, i32, i32, i32, i32, i32, ptr, i64, i64, float, float, i32, i32, ptr, ptr, i32, i32, i32, i32, i32, ptr, ptr, ptr, ptr, i32, i32, [8 x i64], i32, i32, i32, i32, i32, i32, i32, ptr, ptr, i32, i32, i32, i32, i32, i32, i32, i32, i32, i32, ptr, ptr, i32, i32, ptr, ptr, ptr, ptr, i32, i32, i64, i32, i32, i64, ptr, i64, ptr, i32, ptr, i32 }
%struct.AVRational = type { i32, i32 }
%struct.AVChannelLayout = type { i32, i32, %union.anon.0, ptr }
%union.anon.0 = type { i64 }
%struct.MvcContext = type { i32 }

@.str.4 = private unnamed_addr constant [9 x i8] c"BottomUp\00", align 1

; Function Attrs: cold nounwind optsize uwtable
define internal i32 @mvc_decode_init(ptr noundef %0) #0 {
  %2 = alloca i32, align 4
  %3 = alloca ptr, align 8
  %4 = alloca ptr, align 8
  %5 = alloca i32, align 4
  %6 = alloca i32, align 4
  %7 = alloca i32, align 4
  %8 = alloca i32, align 4
  store ptr %0, ptr %3, align 8, !tbaa !4
  call void @llvm.lifetime.start.p0(i64 8, ptr %4) #8
  %9 = load ptr, ptr %3, align 8, !tbaa !4
  %10 = getelementptr inbounds nuw %struct.AVCodecContext, ptr %9, i32 0, i32 6
  %11 = load ptr, ptr %10, align 8, !tbaa !9
  store ptr %11, ptr %4, align 8, !tbaa !29
  call void @llvm.lifetime.start.p0(i64 4, ptr %5) #8
  %12 = load ptr, ptr %3, align 8, !tbaa !4
  %13 = getelementptr inbounds nuw %struct.AVCodecContext, ptr %12, i32 0, i32 18
  %14 = load i32, ptr %13, align 8, !tbaa !31
  store i32 %14, ptr %5, align 4, !tbaa !32
  call void @llvm.lifetime.start.p0(i64 4, ptr %6) #8
  %15 = load ptr, ptr %3, align 8, !tbaa !4
  %16 = getelementptr inbounds nuw %struct.AVCodecContext, ptr %15, i32 0, i32 19
  %17 = load i32, ptr %16, align 4, !tbaa !33
  store i32 %17, ptr %6, align 4, !tbaa !32
  call void @llvm.lifetime.start.p0(i64 4, ptr %7) #8
  %18 = load ptr, ptr %3, align 8, !tbaa !4
  %19 = getelementptr inbounds nuw %struct.AVCodecContext, ptr %18, i32 0, i32 4
  %20 = load i32, ptr %19, align 8, !tbaa !34
  %21 = icmp eq i32 %20, 182
  br i1 %21, label %22, label %27

22:                                               ; preds = %1
  %23 = load i32, ptr %5, align 4, !tbaa !32
  %24 = add nsw i32 %23, 3
  store i32 %24, ptr %5, align 4, !tbaa !32
  %25 = load i32, ptr %6, align 4, !tbaa !32
  %26 = add nsw i32 %25, 3
  store i32 %26, ptr %6, align 4, !tbaa !32
  br label %27

27:                                               ; preds = %22, %1
  %28 = load i32, ptr %5, align 4, !tbaa !32
  %29 = and i32 %28, -4
  store i32 %29, ptr %5, align 4, !tbaa !32
  %30 = load i32, ptr %6, align 4, !tbaa !32
  %31 = and i32 %30, -4
  store i32 %31, ptr %6, align 4, !tbaa !32
  %32 = load ptr, ptr %3, align 8, !tbaa !4
  %33 = load i32, ptr %5, align 4, !tbaa !32
  %34 = load i32, ptr %6, align 4, !tbaa !32
  %35 = call i32 @ff_set_dimensions(ptr noundef %32, i32 noundef %33, i32 noundef %34)
  store i32 %35, ptr %7, align 4, !tbaa !32
  %36 = icmp slt i32 %35, 0
  br i1 %36, label %37, label %39

37:                                               ; preds = %27
  %38 = load i32, ptr %7, align 4, !tbaa !32
  store i32 %38, ptr %2, align 4
  store i32 1, ptr %8, align 4
  br label %69

39:                                               ; preds = %27
  %40 = load ptr, ptr %3, align 8, !tbaa !4
  %41 = getelementptr inbounds nuw %struct.AVCodecContext, ptr %40, i32 0, i32 4
  %42 = load i32, ptr %41, align 8, !tbaa !34
  %43 = icmp eq i32 %42, 182
  %44 = select i1 %43, i32 39, i32 28
  %45 = load ptr, ptr %3, align 8, !tbaa !4
  %46 = getelementptr inbounds nuw %struct.AVCodecContext, ptr %45, i32 0, i32 23
  store i32 %44, ptr %46, align 8, !tbaa !35
  %47 = load ptr, ptr %3, align 8, !tbaa !4
  %48 = getelementptr inbounds nuw %struct.AVCodecContext, ptr %47, i32 0, i32 13
  %49 = load i32, ptr %48, align 8, !tbaa !36
  %50 = icmp sge i32 %49, 9
  br i1 %50, label %51, label %64

51:                                               ; preds = %39
  %52 = load ptr, ptr %3, align 8, !tbaa !4
  %53 = getelementptr inbounds nuw %struct.AVCodecContext, ptr %52, i32 0, i32 12
  %54 = load ptr, ptr %53, align 8, !tbaa !37
  %55 = load ptr, ptr %3, align 8, !tbaa !4
  %56 = getelementptr inbounds nuw %struct.AVCodecContext, ptr %55, i32 0, i32 13
  %57 = load i32, ptr %56, align 8, !tbaa !36
  %58 = sext i32 %57 to i64
  %59 = getelementptr inbounds i8, ptr %54, i64 %58
  %60 = getelementptr inbounds i8, ptr %59, i64 -9
  %61 = call i32 @memcmp(ptr noundef %60, ptr noundef @.str.4, i64 noundef 9) #9
  %62 = icmp ne i32 %61, 0
  %63 = xor i1 %62, true
  br label %64

64:                                               ; preds = %51, %39
  %65 = phi i1 [ false, %39 ], [ %63, %51 ]
  %66 = zext i1 %65 to i32
  %67 = load ptr, ptr %4, align 8, !tbaa !29
  %68 = getelementptr inbounds nuw %struct.MvcContext, ptr %67, i32 0, i32 0
  store i32 %66, ptr %68, align 4, !tbaa !38
  store i32 0, ptr %2, align 4
  store i32 1, ptr %8, align 4
  br label %69

69:                                               ; preds = %64, %37
  call void @llvm.lifetime.end.p0(i64 4, ptr %7) #8
  call void @llvm.lifetime.end.p0(i64 4, ptr %6) #8
  call void @llvm.lifetime.end.p0(i64 4, ptr %5) #8
  call void @llvm.lifetime.end.p0(i64 8, ptr %4) #8
  %70 = load i32, ptr %2, align 4
  ret i32 %70
}