; Function Attrs: cold nounwind optsize uwtable
define internal range(i32 -2147483648, 1) i32 @mvc_decode_init(ptr noundef %0) #0 {
  %2 = getelementptr inbounds nuw i8, ptr %0, i64 32
  %3 = load ptr, ptr %2, align 8, !tbaa !4
  %4 = getelementptr inbounds nuw i8, ptr %0, i64 112
  %5 = load i32, ptr %4, align 8, !tbaa !27
  %6 = getelementptr inbounds nuw i8, ptr %0, i64 116
  %7 = load i32, ptr %6, align 4, !tbaa !28
  %8 = getelementptr inbounds nuw i8, ptr %0, i64 24
  %9 = load i32, ptr %8, align 8, !tbaa !29
  %10 = icmp eq i32 %9, 182
  %11 = add nsw i32 %5, 3
  %12 = add nsw i32 %7, 3
  %.019 = select i1 %10, i32 %11, i32 %5
  %.018 = select i1 %10, i32 %12, i32 %7
  %13 = and i32 %.019, -4
  %14 = and i32 %.018, -4
  %15 = tail call i32 @ff_set_dimensions(ptr noundef %0, i32 noundef %13, i32 noundef %14) #7
  %16 = icmp slt i32 %15, 0
  br i1 %16, label %34, label %17

17:                                               ; preds = %1
  %18 = load i32, ptr %8, align 8, !tbaa !29
  %19 = icmp eq i32 %18, 182
  %20 = select i1 %19, i32 39, i32 28
  %21 = getelementptr inbounds nuw i8, ptr %0, i64 136
  store i32 %20, ptr %21, align 8, !tbaa !30
  %22 = getelementptr inbounds nuw i8, ptr %0, i64 80
  %23 = load i32, ptr %22, align 8, !tbaa !31
  %24 = icmp sgt i32 %23, 8
  br i1 %24, label %25, label %32

25:                                               ; preds = %17
  %26 = getelementptr inbounds nuw i8, ptr %0, i64 72
  %27 = load ptr, ptr %26, align 8, !tbaa !32
  %28 = zext nneg i32 %23 to i64
  %29 = getelementptr inbounds nuw i8, ptr %27, i64 %28
  %30 = getelementptr inbounds i8, ptr %29, i64 -9
  %bcmp = tail call i32 @bcmp(ptr noundef nonnull dereferenceable(9) %30, ptr noundef nonnull dereferenceable(9) @.str.4, i64 9)
  %.not = icmp eq i32 %bcmp, 0
  %31 = zext i1 %.not to i32
  br label %32

32:                                               ; preds = %25, %17
  %33 = phi i32 [ 0, %17 ], [ %31, %25 ]
  store i32 %33, ptr %3, align 4, !tbaa !33
  br label %34

34:                                               ; preds = %1, %32
  %.0 = phi i32 [ 0, %32 ], [ %15, %1 ]
  ret i32 %.0
}